; Function Attrs: mustprogress null_pointer_is_valid sspstrong uwtable
define void @_ZN10PortsModel8populateEv(ptr noundef align 8 dereferenceable_or_null(64) %0) local_unnamed_addr #0 align 2 {
  %2 = tail call ptr @get_serv_port_hashtable()
  %.not = icmp eq ptr %2, null
  br i1 %.not, label %4, label %3

3:                                                ; preds = %1
  tail call void @wmem_map_foreach(ptr noundef nonnull %2, ptr noundef nonnull @_ZL29serv_port_hash_to_qstringlistPvS_S_, ptr noundef %0)
  br label %4

4:                                                ; preds = %3, %1
  ret void
}